; Function Attrs: null_pointer_is_valid sspstrong uwtable
define internal i32 @dissect_sml(ptr noundef %0, ptr noundef %1, ptr noundef %2, ptr readnone captures(none) %3) #0 {
  %5 = alloca i32, align 4
  call void @llvm.lifetime.start.p0(i64 4, ptr nonnull %5) #5
  store i32 0, ptr %5, align 4
  %6 = tail call i32 @tvb_get_ntohl(ptr noundef %0, i32 noundef 0)
  %.not = icmp eq i32 %6, 454761243
  br i1 %.not, label %9, label %7

7:                                                ; preds = %4
  %8 = tail call zeroext i8 @tvb_get_uint8(ptr noundef %0, i32 noundef 0)
  %.not11 = icmp eq i8 %8, 118
  br i1 %.not11, label %9, label %18

9:                                                ; preds = %7, %4
  %10 = getelementptr inbounds nuw i8, ptr %1, i64 8
  %11 = load ptr, ptr %10, align 8
  tail call void @col_set_str(ptr noundef %11, i32 noundef 35, ptr noundef nonnull @.str.172)
  %12 = load ptr, ptr %10, align 8
  tail call void @col_clear(ptr noundef %12, i32 noundef 25)
  %13 = load i32, ptr @proto_sml, align 4
  %14 = tail call ptr @proto_tree_add_item(ptr noundef %2, i32 noundef %13, ptr noundef %0, i32 noundef 0, i32 noundef -1, i32 noundef 0)
  %15 = load i32, ptr @ett_sml, align 4
  %16 = tail call ptr @proto_item_add_subtree(ptr noundef %14, i32 noundef %15)
  call fastcc void @dissect_sml_file(ptr noundef %0, ptr noundef %1, ptr noundef nonnull %5, ptr noundef %16)
  %17 = call i32 @tvb_captured_length(ptr noundef %0)
  br label %18

18:                                               ; preds = %7, %9
  %.0 = phi i32 [ %17, %9 ], [ 0, %7 ]
  call void @llvm.lifetime.end.p0(i64 4, ptr nonnull %5) #5
  ret i32 %.0
}